; Function Attrs: mustprogress uwtable
define noundef zeroext i1 @_ZN4base14StringToDoubleERKNSt7__cxx1112basic_stringIcSt11char_traitsIcESaIcEEEPd(ptr noundef nonnull readonly align 8 captures(none) dereferenceable(32) %0, ptr noundef writeonly captures(none) %1) local_unnamed_addr #0 personality ptr @__gxx_personality_v0 {
  %3 = alloca ptr, align 8
  %4 = tail call ptr @__errno_location() #21
  %5 = load i32, ptr %4, align 4, !tbaa !66
  store i32 0, ptr %4, align 4, !tbaa !66
  call void @llvm.lifetime.start.p0(i64 8, ptr nonnull %3) #18
  store ptr null, ptr %3, align 8, !tbaa !90
  %6 = load ptr, ptr %0, align 8, !tbaa !19
  %7 = invoke noundef double @_ZN6dmg_fp6strtodEPKcPPc(ptr noundef %6, ptr noundef nonnull %3)
          to label %8 unwind label %27

8:                                                ; preds = %2
  store double %7, ptr %1, align 8, !tbaa !91
  %9 = load i32, ptr %4, align 4, !tbaa !66
  %10 = icmp eq i32 %9, 0
  br i1 %10, label %11, label %24

11:                                               ; preds = %8
  %12 = getelementptr inbounds nuw i8, ptr %0, i64 8
  %13 = load i64, ptr %12, align 8, !tbaa !15
  %14 = icmp eq i64 %13, 0
  br i1 %14, label %25, label %15

15:                                               ; preds = %11
  %16 = load ptr, ptr %0, align 8, !tbaa !19
  %17 = getelementptr inbounds nuw i8, ptr %16, i64 %13
  %18 = load ptr, ptr %3, align 8, !tbaa !90
  %19 = icmp eq ptr %17, %18
  br i1 %19, label %20, label %25

20:                                               ; preds = %15
  %21 = load i8, ptr %16, align 1, !tbaa !6
  %22 = sext i8 %21 to i32
  %23 = call i32 @isspace(i32 noundef %22) #20
  %.not = icmp eq i32 %23, 0
  br label %25

24:                                               ; preds = %8
  call void @llvm.lifetime.end.p0(i64 8, ptr nonnull %3) #18
  br label %_ZN4base16ScopedClearErrnoD2Ev.exit

25:                                               ; preds = %20, %15, %11
  %.ph = phi i1 [ %.not, %20 ], [ false, %11 ], [ false, %15 ]
  call void @llvm.lifetime.end.p0(i64 8, ptr nonnull %3) #18
  store i32 %5, ptr %4, align 4, !tbaa !66
  br label %_ZN4base16ScopedClearErrnoD2Ev.exit

_ZN4base16ScopedClearErrnoD2Ev.exit:              ; preds = %24, %25
  %26 = phi i1 [ false, %24 ], [ %.ph, %25 ]
  ret i1 %26

27:                                               ; preds = %2
  %28 = landingpad { ptr, i32 }
          cleanup
  call void @llvm.lifetime.end.p0(i64 8, ptr nonnull %3) #18
  %29 = load i32, ptr %4, align 4, !tbaa !66
  %30 = icmp eq i32 %29, 0
  br i1 %30, label %31, label %_ZN4base16ScopedClearErrnoD2Ev.exit7

31:                                               ; preds = %27
  store i32 %5, ptr %4, align 4, !tbaa !66
  br label %_ZN4base16ScopedClearErrnoD2Ev.exit7

_ZN4base16ScopedClearErrnoD2Ev.exit7:             ; preds = %27, %31
  resume { ptr, i32 } %28
}